; Function Attrs: mustprogress nounwind uwtable
define hidden void @_ZN20G1CommittedRegionMap8activateEjj(ptr noundef nonnull align 8 dereferenceable(64) %0, i32 noundef %1, i32 noundef %2) local_unnamed_addr #1 align 2 {
  %4 = load volatile ptr, ptr getelementptr inbounds (i8, ptr @_ZN16LogTagSetMappingILN6LogTag4typeE49ELS1_52ELS1_128ELS1_0ELS1_0ELS1_0EE7_tagsetE, i64 56), align 8
  %.not = icmp eq ptr %4, null
  br i1 %.not, label %6, label %5

5:                                                ; preds = %3
  tail call void (ptr, ...) @_ZN7LogImplILN6LogTag4typeE49ELS1_52ELS1_128ELS1_0ELS1_0ELS1_0EE5writeILN8LogLevel4typeE2EEEvPKcz(ptr noundef nonnull @.str, i32 noundef %1, i32 noundef %2)
  br label %6

6:                                                ; preds = %3, %5
  %7 = load ptr, ptr %0, align 8
  %8 = load ptr, ptr %7, align 8
  tail call void %8(ptr noundef nonnull align 8 dereferenceable(64) %0) #10
  %9 = getelementptr inbounds i8, ptr %0, i64 8
  %10 = zext i32 %1 to i64
  %11 = zext i32 %2 to i64
  tail call void @_ZN6BitMap16par_at_put_rangeEmmb(ptr noundef nonnull align 8 dereferenceable(16) %9, i64 noundef %10, i64 noundef %11, i1 noundef zeroext true) #10
  %12 = sub i32 %2, %1
  %13 = getelementptr inbounds i8, ptr %0, i64 56
  %14 = load i32, ptr %13, align 8
  %15 = add i32 %12, %14
  store i32 %15, ptr %13, align 8
  ret void
}